target datalayout = "e-m:e-p270:32:32-p271:32:32-p272:64:64-i64:64-i128:128-f80:128-n8:16:32:64-S128"
target triple = "x86_64-pc-linux-gnu"

%struct._lv_roller_t = type { %struct._lv_obj_t, i32, i32, i32, i32, i8 }
%struct._lv_obj_t = type { ptr, ptr, ptr, ptr, ptr, %struct.lv_area_t, i32, i16, i16 }
%struct.lv_area_t = type { i32, i32, i32, i32 }
%union.lv_style_value_t = type { ptr }
%struct._lv_anim_t = type { ptr, ptr, ptr, ptr, ptr, ptr, ptr, ptr, ptr, i32, i32, i32, i32, i32, i32, i32, i32, i32, %union._lv_anim_path_para_t, i32, i32, i32, i8 }
%union._lv_anim_path_para_t = type { %struct.lv_anim_bezier3_para_t }
%struct.lv_anim_bezier3_para_t = type { i16, i16, i16, i16 }

; Function Attrs: inlinehint nounwind uwtable
define internal i32 @lv_obj_get_style_anim_duration(ptr noundef %0, i32 noundef %1) #3 {
  %3 = alloca ptr, align 8
  %4 = alloca i32, align 4
  %5 = alloca %union.lv_style_value_t, align 8
  store ptr %0, ptr %3, align 8, !tbaa !8
  store i32 %1, ptr %4, align 4, !tbaa !24
  call void @llvm.lifetime.start.p0(i64 8, ptr %5) #6
  %6 = load ptr, ptr %3, align 8, !tbaa !8
  %7 = load i32, ptr %4, align 4, !tbaa !24
  %8 = call ptr @lv_obj_get_style_prop(ptr noundef %6, i32 noundef %7, i8 noundef zeroext 100)
  %9 = getelementptr inbounds nuw %union.lv_style_value_t, ptr %5, i32 0, i32 0
  store ptr %8, ptr %9, align 8
  %10 = load i32, ptr %5, align 8, !tbaa !41
  call void @llvm.lifetime.end.p0(i64 8, ptr %5) #6
  ret i32 %10
}

; Function Attrs: inlinehint nounwind uwtable
define internal i32 @lv_obj_get_style_text_line_space(ptr noundef %0, i32 noundef %1) #3 {
  %3 = alloca ptr, align 8
  %4 = alloca i32, align 4
  %5 = alloca %union.lv_style_value_t, align 8
  store ptr %0, ptr %3, align 8, !tbaa !8
  store i32 %1, ptr %4, align 4, !tbaa !24
  call void @llvm.lifetime.start.p0(i64 8, ptr %5) #6
  %6 = load ptr, ptr %3, align 8, !tbaa !8
  %7 = load i32, ptr %4, align 4, !tbaa !24
  %8 = call ptr @lv_obj_get_style_prop(ptr noundef %6, i32 noundef %7, i8 noundef zeroext 92)
  %9 = getelementptr inbounds nuw %union.lv_style_value_t, ptr %5, i32 0, i32 0
  store ptr %8, ptr %9, align 8
  %10 = load i32, ptr %5, align 8, !tbaa !41
  call void @llvm.lifetime.end.p0(i64 8, ptr %5) #6
  ret i32 %10
}

; Function Attrs: inlinehint nounwind uwtable
define internal ptr @lv_obj_get_style_text_font(ptr noundef %0, i32 noundef %1) #3 {
  %3 = alloca ptr, align 8
  %4 = alloca i32, align 4
  %5 = alloca %union.lv_style_value_t, align 8
  store ptr %0, ptr %3, align 8, !tbaa !8
  store i32 %1, ptr %4, align 4, !tbaa !24
  call void @llvm.lifetime.start.p0(i64 8, ptr %5) #6
  %6 = load ptr, ptr %3, align 8, !tbaa !8
  %7 = load i32, ptr %4, align 4, !tbaa !24
  %8 = call ptr @lv_obj_get_style_prop(ptr noundef %6, i32 noundef %7, i8 noundef zeroext 90)
  %9 = getelementptr inbounds nuw %union.lv_style_value_t, ptr %5, i32 0, i32 0
  store ptr %8, ptr %9, align 8
  %10 = load ptr, ptr %5, align 8, !tbaa !41
  call void @llvm.lifetime.end.p0(i64 8, ptr %5) #6
  ret ptr %10
}

; Function Attrs: nounwind uwtable
define internal ptr @get_label(ptr noundef %0) #0 {
  %2 = alloca ptr, align 8
  store ptr %0, ptr %2, align 8, !tbaa !8
  %3 = load ptr, ptr %2, align 8, !tbaa !8
  %4 = call ptr @lv_obj_get_child(ptr noundef %3, i32 noundef 0)
  ret ptr %4
}

; Function Attrs: nounwind uwtable
define internal void @refr_position(ptr noundef %0, i1 noundef zeroext %1) #0 {
  %3 = alloca ptr, align 8
  %4 = alloca i8, align 1
  %5 = alloca ptr, align 8
  %6 = alloca i32, align 4
  %7 = alloca i32, align 4
  %8 = alloca i32, align 4
  %9 = alloca ptr, align 8
  %10 = alloca i32, align 4
  %11 = alloca i32, align 4
  %12 = alloca i32, align 4
  %13 = alloca i32, align 4
  %14 = alloca ptr, align 8
  %15 = alloca i32, align 4
  %16 = alloca i32, align 4
  %17 = alloca i32, align 4
  %18 = alloca i32, align 4
  %19 = alloca %struct._lv_anim_t, align 8
  store ptr %0, ptr %3, align 8, !tbaa !8
  %20 = zext i1 %1 to i8
  store i8 %20, ptr %4, align 1, !tbaa !33
  call void @llvm.lifetime.start.p0(i64 8, ptr %5) #6
  %21 = load ptr, ptr %3, align 8, !tbaa !8
  %22 = call ptr @get_label(ptr noundef %21)
  store ptr %22, ptr %5, align 8, !tbaa !8
  %23 = load ptr, ptr %5, align 8, !tbaa !8
  %24 = icmp eq ptr %23, null
  br i1 %24, label %25, label %26

25:                                               ; preds = %2
  store i32 1, ptr %6, align 4
  br label %107

26:                                               ; preds = %2
  call void @llvm.lifetime.start.p0(i64 4, ptr %7) #6
  %27 = load ptr, ptr %5, align 8, !tbaa !8
  %28 = load ptr, ptr %5, align 8, !tbaa !8
  %29 = call ptr @lv_label_get_text(ptr noundef %28)
  %30 = call i32 @lv_obj_calculate_style_text_align(ptr noundef %27, i32 noundef 0, ptr noundef %29)
  store i32 %30, ptr %7, align 4, !tbaa !24
  call void @llvm.lifetime.start.p0(i64 4, ptr %8) #6
  store i32 0, ptr %8, align 4, !tbaa !24
  %31 = load i32, ptr %7, align 4, !tbaa !24
  switch i32 %31, label %46 [
    i32 2, label %32
    i32 3, label %39
    i32 1, label %45
  ]

32:                                               ; preds = %26
  %33 = load ptr, ptr %3, align 8, !tbaa !8
  %34 = call i32 @lv_obj_get_content_width(ptr noundef %33)
  %35 = load ptr, ptr %5, align 8, !tbaa !8
  %36 = call i32 @lv_obj_get_width(ptr noundef %35)
  %37 = sub nsw i32 %34, %36
  %38 = sdiv i32 %37, 2
  store i32 %38, ptr %8, align 4, !tbaa !24
  br label %47

39:                                               ; preds = %26
  %40 = load ptr, ptr %3, align 8, !tbaa !8
  %41 = call i32 @lv_obj_get_content_width(ptr noundef %40)
  %42 = load ptr, ptr %5, align 8, !tbaa !8
  %43 = call i32 @lv_obj_get_width(ptr noundef %42)
  %44 = sub nsw i32 %41, %43
  store i32 %44, ptr %8, align 4, !tbaa !24
  br label %47

45:                                               ; preds = %26
  store i32 0, ptr %8, align 4, !tbaa !24
  br label %47

46:                                               ; preds = %26
  br label %47

47:                                               ; preds = %46, %45, %39, %32
  %48 = load ptr, ptr %5, align 8, !tbaa !8
  %49 = load i32, ptr %8, align 4, !tbaa !24
  call void @lv_obj_set_x(ptr noundef %48, i32 noundef %49)
  call void @llvm.lifetime.start.p0(i64 8, ptr %9) #6
  %50 = load ptr, ptr %3, align 8, !tbaa !8
  %51 = call ptr @lv_obj_get_style_text_font(ptr noundef %50, i32 noundef 0)
  store ptr %51, ptr %9, align 8, !tbaa !44
  call void @llvm.lifetime.start.p0(i64 4, ptr %10) #6
  %52 = load ptr, ptr %3, align 8, !tbaa !8
  %53 = call i32 @lv_obj_get_style_text_line_space(ptr noundef %52, i32 noundef 0)
  store i32 %53, ptr %10, align 4, !tbaa !24
  call void @llvm.lifetime.start.p0(i64 4, ptr %11) #6
  %54 = load ptr, ptr %9, align 8, !tbaa !44
  %55 = call i32 @lv_font_get_line_height(ptr noundef %54)
  store i32 %55, ptr %11, align 4, !tbaa !24
  call void @llvm.lifetime.start.p0(i64 4, ptr %12) #6
  %56 = load ptr, ptr %3, align 8, !tbaa !8
  %57 = call i32 @lv_obj_get_content_height(ptr noundef %56)
  store i32 %57, ptr %12, align 4, !tbaa !24
  call void @llvm.lifetime.start.p0(i64 4, ptr %13) #6
  %58 = load ptr, ptr %3, align 8, !tbaa !8
  %59 = call i32 @lv_obj_get_style_anim_duration(ptr noundef %58, i32 noundef 0)
  store i32 %59, ptr %13, align 4, !tbaa !24
  %60 = load i8, ptr %4, align 1, !tbaa !33, !range !35, !noundef !36
  %61 = trunc i8 %60 to i1
  %62 = zext i1 %61 to i32
  %63 = icmp eq i32 %62, 0
  br i1 %63, label %67, label %64

64:                                               ; preds = %47
  %65 = load i32, ptr %13, align 4, !tbaa !24
  %66 = icmp eq i32 %65, 0
  br i1 %66, label %67, label %69

67:                                               ; preds = %64, %47
  %68 = load ptr, ptr %3, align 8, !tbaa !8
  call void @inf_normalize(ptr noundef %68)
  br label %69

69:                                               ; preds = %67, %64
  call void @llvm.lifetime.start.p0(i64 8, ptr %14) #6
  %70 = load ptr, ptr %3, align 8, !tbaa !8
  store ptr %70, ptr %14, align 8, !tbaa !10
  call void @llvm.lifetime.start.p0(i64 4, ptr %15) #6
  %71 = load ptr, ptr %14, align 8, !tbaa !10
  %72 = getelementptr inbounds nuw %struct._lv_roller_t, ptr %71, i32 0, i32 2
  %73 = load i32, ptr %72, align 4, !tbaa !20
  store i32 %73, ptr %15, align 4, !tbaa !24
  call void @llvm.lifetime.start.p0(i64 4, ptr %16) #6
  %74 = load i32, ptr %15, align 4, !tbaa !24
  %75 = load i32, ptr %11, align 4, !tbaa !24
  %76 = load i32, ptr %10, align 4, !tbaa !24
  %77 = add nsw i32 %75, %76
  %78 = mul nsw i32 %74, %77
  store i32 %78, ptr %16, align 4, !tbaa !24
  call void @llvm.lifetime.start.p0(i64 4, ptr %17) #6
  %79 = load i32, ptr %12, align 4, !tbaa !24
  %80 = sdiv i32 %79, 2
  %81 = load i32, ptr %11, align 4, !tbaa !24
  %82 = sdiv i32 %81, 2
  %83 = sub nsw i32 %80, %82
  store i32 %83, ptr %17, align 4, !tbaa !24
  call void @llvm.lifetime.start.p0(i64 4, ptr %18) #6
  %84 = load i32, ptr %17, align 4, !tbaa !24
  %85 = load i32, ptr %16, align 4, !tbaa !24
  %86 = sub nsw i32 %84, %85
  store i32 %86, ptr %18, align 4, !tbaa !24
  %87 = load i8, ptr %4, align 1, !tbaa !33, !range !35, !noundef !36
  %88 = trunc i8 %87 to i1
  %89 = zext i1 %88 to i32
  %90 = icmp eq i32 %89, 0
  br i1 %90, label %94, label %91

91:                                               ; preds = %69
  %92 = load i32, ptr %13, align 4, !tbaa !24
  %93 = icmp eq i32 %92, 0
  br i1 %93, label %94, label %99

94:                                               ; preds = %91, %69
  %95 = load ptr, ptr %5, align 8, !tbaa !8
  %96 = call zeroext i1 @lv_anim_delete(ptr noundef %95, ptr noundef @set_y_anim)
  %97 = load ptr, ptr %5, align 8, !tbaa !8
  %98 = load i32, ptr %18, align 4, !tbaa !24
  call void @lv_obj_set_y(ptr noundef %97, i32 noundef %98)
  br label %106

99:                                               ; preds = %91
  call void @llvm.lifetime.start.p0(i64 136, ptr %19) #6
  call void @lv_anim_init(ptr noundef %19)
  %100 = load ptr, ptr %5, align 8, !tbaa !8
  call void @lv_anim_set_var(ptr noundef %19, ptr noundef %100)
  call void @lv_anim_set_exec_cb(ptr noundef %19, ptr noundef @set_y_anim)
  %101 = load ptr, ptr %5, align 8, !tbaa !8
  %102 = call i32 @lv_obj_get_y(ptr noundef %101)
  %103 = load i32, ptr %18, align 4, !tbaa !24
  call void @lv_anim_set_values(ptr noundef %19, i32 noundef %102, i32 noundef %103)
  %104 = load i32, ptr %13, align 4, !tbaa !24
  call void @lv_anim_set_duration(ptr noundef %19, i32 noundef %104)
  call void @lv_anim_set_completed_cb(ptr noundef %19, ptr noundef @scroll_anim_completed_cb)
  call void @lv_anim_set_path_cb(ptr noundef %19, ptr noundef @lv_anim_path_ease_out)
  %105 = call ptr @lv_anim_start(ptr noundef %19)
  call void @llvm.lifetime.end.p0(i64 136, ptr %19) #6
  br label %106

106:                                              ; preds = %99, %94
  call void @llvm.lifetime.end.p0(i64 4, ptr %18) #6
  call void @llvm.lifetime.end.p0(i64 4, ptr %17) #6
  call void @llvm.lifetime.end.p0(i64 4, ptr %16) #6
  call void @llvm.lifetime.end.p0(i64 4, ptr %15) #6
  call void @llvm.lifetime.end.p0(i64 8, ptr %14) #6
  call void @llvm.lifetime.end.p0(i64 4, ptr %13) #6
  call void @llvm.lifetime.end.p0(i64 4, ptr %12) #6
  call void @llvm.lifetime.end.p0(i64 4, ptr %11) #6
  call void @llvm.lifetime.end.p0(i64 4, ptr %10) #6
  call void @llvm.lifetime.end.p0(i64 8, ptr %9) #6
  call void @llvm.lifetime.end.p0(i64 4, ptr %8) #6
  call void @llvm.lifetime.end.p0(i64 4, ptr %7) #6
  store i32 0, ptr %6, align 4
  br label %107

107:                                              ; preds = %106, %25
  call void @llvm.lifetime.end.p0(i64 8, ptr %5) #6
  %108 = load i32, ptr %6, align 4
  switch i32 %108, label %110 [
    i32 0, label %109
    i32 1, label %109
  ]

109:                                              ; preds = %107, %107
  ret void

110:                                              ; preds = %107
  unreachable
}