; Function Attrs: nounwind uwtable
define internal fastcc void @refr_position(ptr noundef %0, i1 noundef zeroext %1) unnamed_addr #0 {
  %3 = alloca %struct._lv_anim_t, align 8
  %4 = tail call ptr @lv_obj_get_child(ptr noundef %0, i32 noundef 0) #6
  %5 = icmp eq ptr %4, null
  br i1 %5, label %41, label %6

6:                                                ; preds = %2
  %7 = tail call ptr @lv_label_get_text(ptr noundef nonnull %4) #6
  %8 = tail call i32 @lv_obj_calculate_style_text_align(ptr noundef nonnull %4, i32 noundef 0, ptr noundef %7) #6
  switch i32 %8, label %18 [
    i32 2, label %9
    i32 3, label %14
  ]

9:                                                ; preds = %6
  %10 = tail call i32 @lv_obj_get_content_width(ptr noundef %0) #6
  %11 = tail call i32 @lv_obj_get_width(ptr noundef nonnull %4) #6
  %12 = sub nsw i32 %10, %11
  %13 = sdiv i32 %12, 2
  br label %18

14:                                               ; preds = %6
  %15 = tail call i32 @lv_obj_get_content_width(ptr noundef %0) #6
  %16 = tail call i32 @lv_obj_get_width(ptr noundef nonnull %4) #6
  %17 = sub nsw i32 %15, %16
  br label %18

18:                                               ; preds = %6, %14, %9
  %.0 = phi i32 [ %17, %14 ], [ %13, %9 ], [ 0, %6 ]
  tail call void @lv_obj_set_x(ptr noundef nonnull %4, i32 noundef %.0) #6
  %19 = tail call ptr @lv_obj_get_style_prop(ptr noundef %0, i32 noundef 0, i8 noundef zeroext 90) #6
  %20 = tail call ptr @lv_obj_get_style_prop(ptr noundef %0, i32 noundef 0, i8 noundef zeroext 92) #6
  %21 = ptrtoint ptr %20 to i64
  %.sroa.0.0.extract.trunc.i = trunc i64 %21 to i32
  %22 = tail call i32 @lv_font_get_line_height(ptr noundef %19) #6
  %23 = tail call i32 @lv_obj_get_content_height(ptr noundef %0) #6
  %24 = tail call ptr @lv_obj_get_style_prop(ptr noundef %0, i32 noundef 0, i8 noundef zeroext 100) #6
  %25 = ptrtoint ptr %24 to i64
  %.sroa.0.0.extract.trunc.i41 = trunc i64 %25 to i32
  %26 = icmp ne i32 %.sroa.0.0.extract.trunc.i41, 0
  %or.cond.not = select i1 %1, i1 %26, i1 false
  br i1 %or.cond.not, label %28, label %27

27:                                               ; preds = %18
  tail call fastcc void @inf_normalize(ptr noundef %0)
  br label %28

28:                                               ; preds = %18, %27
  %29 = getelementptr inbounds nuw i8, ptr %0, i64 68
  %30 = load i32, ptr %29, align 4, !tbaa !16
  %31 = add nsw i32 %22, %.sroa.0.0.extract.trunc.i
  %32 = mul nsw i32 %30, %31
  %33 = sdiv i32 %23, 2
  %.neg = sdiv i32 %22, -2
  %34 = add nsw i32 %33, %.neg
  %35 = sub i32 %34, %32
  br i1 %or.cond.not, label %38, label %36

36:                                               ; preds = %28
  %37 = tail call zeroext i1 @lv_anim_delete(ptr noundef nonnull %4, ptr noundef nonnull @set_y_anim) #6
  tail call void @lv_obj_set_y(ptr noundef nonnull %4, i32 noundef %35) #6
  br label %41

38:                                               ; preds = %28
  call void @llvm.lifetime.start.p0(i64 136, ptr nonnull %3) #6
  call void @lv_anim_init(ptr noundef nonnull %3) #6
  call void @lv_anim_set_var(ptr noundef nonnull %3, ptr noundef nonnull %4) #6
  call void @lv_anim_set_exec_cb(ptr noundef nonnull %3, ptr noundef nonnull @set_y_anim) #6
  %39 = call i32 @lv_obj_get_y(ptr noundef nonnull %4) #6
  call void @lv_anim_set_values(ptr noundef nonnull %3, i32 noundef %39, i32 noundef %35) #6
  call void @lv_anim_set_duration(ptr noundef nonnull %3, i32 noundef %.sroa.0.0.extract.trunc.i41) #6
  call void @lv_anim_set_completed_cb(ptr noundef nonnull %3, ptr noundef nonnull @scroll_anim_completed_cb) #6
  call void @lv_anim_set_path_cb(ptr noundef nonnull %3, ptr noundef nonnull @lv_anim_path_ease_out) #6
  %40 = call ptr @lv_anim_start(ptr noundef nonnull %3) #6
  call void @llvm.lifetime.end.p0(i64 136, ptr nonnull %3) #6
  br label %41

41:                                               ; preds = %36, %38, %2
  ret void
}